target datalayout = "e-m:e-p270:32:32-p271:32:32-p272:64:64-i64:64-i128:128-f80:128-n8:16:32:64-S128"
target triple = "x86_64-pc-linux-gnu"

%struct.SDL_Surface = type { i32, i32, i32, i32, i32, ptr, i32, ptr, i32, i32, ptr, i32, ptr, i32, ptr, i32, %struct.SDL_Rect, %struct.SDL_BlitMap }
%struct.SDL_Rect = type { i32, i32, i32, i32 }
%struct.SDL_BlitMap = type { i32, ptr, ptr, %struct.SDL_BlitInfo, i32, i32 }
%struct.SDL_BlitInfo = type { ptr, ptr, i32, i32, i32, i32, ptr, ptr, i32, i32, i32, i32, ptr, ptr, ptr, ptr, ptr, ptr, i32, i32, i8, i8, i8, i8 }

@SDL_surface_magic = internal global i8 0, align 1
@.str = private unnamed_addr constant [26 x i8] c"Parameter '%s' is invalid\00", align 1
@.str.5 = private unnamed_addr constant [8 x i8] c"surface\00", align 1
@.str.13 = private unnamed_addr constant [10 x i8] c"blendMode\00", align 1
@.str.14 = private unnamed_addr constant [32 x i8] c"That operation is not supported\00", align 1

; Function Attrs: nounwind uwtable
define hidden zeroext i1 @SDL_SurfaceValid(ptr noundef %0) #0 {
  %2 = alloca ptr, align 8
  store ptr %0, ptr %2, align 8
  %3 = load ptr, ptr %2, align 8
  %4 = icmp ne ptr %3, null
  br i1 %4, label %5, label %10

5:                                                ; preds = %1
  %6 = load ptr, ptr %2, align 8
  %7 = getelementptr inbounds nuw %struct.SDL_Surface, ptr %6, i32 0, i32 7
  %8 = load ptr, ptr %7, align 8
  %9 = icmp eq ptr %8, @SDL_surface_magic
  br label %10

10:                                               ; preds = %5, %1
  %11 = phi i1 [ false, %1 ], [ %9, %5 ]
  ret i1 %11
}

; Function Attrs: nounwind uwtable
define hidden zeroext i1 @SDL_SetSurfaceBlendMode_REAL(ptr noundef %0, i32 noundef %1) #0 {
  %3 = alloca i1, align 1
  %4 = alloca ptr, align 8
  %5 = alloca i32, align 4
  %6 = alloca i32, align 4
  %7 = alloca i8, align 1
  %8 = alloca i32, align 4
  store ptr %0, ptr %4, align 8
  store i32 %1, ptr %5, align 4
  call void @llvm.lifetime.start.p0(i64 4, ptr %6) #8
  call void @llvm.lifetime.start.p0(i64 1, ptr %7) #8
  store i8 1, ptr %7, align 1
  %9 = load ptr, ptr %4, align 8
  %10 = call zeroext i1 @SDL_SurfaceValid(ptr noundef %9)
  br i1 %10, label %13, label %11

11:                                               ; preds = %2
  %12 = call zeroext i1 (ptr, ...) @SDL_SetError_REAL(ptr noundef @.str, ptr noundef @.str.5)
  store i1 %12, ptr %3, align 1
  store i32 1, ptr %8, align 4
  br label %90

13:                                               ; preds = %2
  %14 = load i32, ptr %5, align 4
  %15 = icmp eq i32 %14, 2147483647
  br i1 %15, label %16, label %18

16:                                               ; preds = %13
  %17 = call zeroext i1 (ptr, ...) @SDL_SetError_REAL(ptr noundef @.str, ptr noundef @.str.13)
  store i1 %17, ptr %3, align 1
  store i32 1, ptr %8, align 4
  br label %90

18:                                               ; preds = %13
  %19 = load ptr, ptr %4, align 8
  %20 = getelementptr inbounds nuw %struct.SDL_Surface, ptr %19, i32 0, i32 17
  %21 = getelementptr inbounds nuw %struct.SDL_BlitMap, ptr %20, i32 0, i32 3
  %22 = getelementptr inbounds nuw %struct.SDL_BlitInfo, ptr %21, i32 0, i32 18
  %23 = load i32, ptr %22, align 8
  store i32 %23, ptr %6, align 4
  %24 = load ptr, ptr %4, align 8
  %25 = getelementptr inbounds nuw %struct.SDL_Surface, ptr %24, i32 0, i32 17
  %26 = getelementptr inbounds nuw %struct.SDL_BlitMap, ptr %25, i32 0, i32 3
  %27 = getelementptr inbounds nuw %struct.SDL_BlitInfo, ptr %26, i32 0, i32 18
  %28 = load i32, ptr %27, align 8
  %29 = and i32 %28, -1009
  store i32 %29, ptr %27, align 8
  %30 = load i32, ptr %5, align 4
  switch i32 %30, label %73 [
    i32 0, label %76
    i32 1, label %31
    i32 16, label %38
    i32 2, label %45
    i32 32, label %52
    i32 4, label %59
    i32 8, label %66
  ]

31:                                               ; preds = %18
  %32 = load ptr, ptr %4, align 8
  %33 = getelementptr inbounds nuw %struct.SDL_Surface, ptr %32, i32 0, i32 17
  %34 = getelementptr inbounds nuw %struct.SDL_BlitMap, ptr %33, i32 0, i32 3
  %35 = getelementptr inbounds nuw %struct.SDL_BlitInfo, ptr %34, i32 0, i32 18
  %36 = load i32, ptr %35, align 8
  %37 = or i32 %36, 16
  store i32 %37, ptr %35, align 8
  br label %76

38:                                               ; preds = %18
  %39 = load ptr, ptr %4, align 8
  %40 = getelementptr inbounds nuw %struct.SDL_Surface, ptr %39, i32 0, i32 17
  %41 = getelementptr inbounds nuw %struct.SDL_BlitMap, ptr %40, i32 0, i32 3
  %42 = getelementptr inbounds nuw %struct.SDL_BlitInfo, ptr %41, i32 0, i32 18
  %43 = load i32, ptr %42, align 8
  %44 = or i32 %43, 32
  store i32 %44, ptr %42, align 8
  br label %76

45:                                               ; preds = %18
  %46 = load ptr, ptr %4, align 8
  %47 = getelementptr inbounds nuw %struct.SDL_Surface, ptr %46, i32 0, i32 17
  %48 = getelementptr inbounds nuw %struct.SDL_BlitMap, ptr %47, i32 0, i32 3
  %49 = getelementptr inbounds nuw %struct.SDL_BlitInfo, ptr %48, i32 0, i32 18
  %50 = load i32, ptr %49, align 8
  %51 = or i32 %50, 64
  store i32 %51, ptr %49, align 8
  br label %76

52:                                               ; preds = %18
  %53 = load ptr, ptr %4, align 8
  %54 = getelementptr inbounds nuw %struct.SDL_Surface, ptr %53, i32 0, i32 17
  %55 = getelementptr inbounds nuw %struct.SDL_BlitMap, ptr %54, i32 0, i32 3
  %56 = getelementptr inbounds nuw %struct.SDL_BlitInfo, ptr %55, i32 0, i32 18
  %57 = load i32, ptr %56, align 8
  %58 = or i32 %57, 128
  store i32 %58, ptr %56, align 8
  br label %76

59:                                               ; preds = %18
  %60 = load ptr, ptr %4, align 8
  %61 = getelementptr inbounds nuw %struct.SDL_Surface, ptr %60, i32 0, i32 17
  %62 = getelementptr inbounds nuw %struct.SDL_BlitMap, ptr %61, i32 0, i32 3
  %63 = getelementptr inbounds nuw %struct.SDL_BlitInfo, ptr %62, i32 0, i32 18
  %64 = load i32, ptr %63, align 8
  %65 = or i32 %64, 256
  store i32 %65, ptr %63, align 8
  br label %76

66:                                               ; preds = %18
  %67 = load ptr, ptr %4, align 8
  %68 = getelementptr inbounds nuw %struct.SDL_Surface, ptr %67, i32 0, i32 17
  %69 = getelementptr inbounds nuw %struct.SDL_BlitMap, ptr %68, i32 0, i32 3
  %70 = getelementptr inbounds nuw %struct.SDL_BlitInfo, ptr %69, i32 0, i32 18
  %71 = load i32, ptr %70, align 8
  %72 = or i32 %71, 512
  store i32 %72, ptr %70, align 8
  br label %76

73:                                               ; preds = %18
  %74 = call zeroext i1 (ptr, ...) @SDL_SetError_REAL(ptr noundef @.str.14)
  %75 = zext i1 %74 to i8
  store i8 %75, ptr %7, align 1
  br label %76

76:                                               ; preds = %73, %66, %59, %52, %45, %38, %31, %18
  %77 = load ptr, ptr %4, align 8
  %78 = getelementptr inbounds nuw %struct.SDL_Surface, ptr %77, i32 0, i32 17
  %79 = getelementptr inbounds nuw %struct.SDL_BlitMap, ptr %78, i32 0, i32 3
  %80 = getelementptr inbounds nuw %struct.SDL_BlitInfo, ptr %79, i32 0, i32 18
  %81 = load i32, ptr %80, align 8
  %82 = load i32, ptr %6, align 4
  %83 = icmp ne i32 %81, %82
  br i1 %83, label %84, label %87

84:                                               ; preds = %76
  %85 = load ptr, ptr %4, align 8
  %86 = getelementptr inbounds nuw %struct.SDL_Surface, ptr %85, i32 0, i32 17
  call void @SDL_InvalidateMap(ptr noundef %86)
  br label %87

87:                                               ; preds = %84, %76
  %88 = load i8, ptr %7, align 1, !range !3, !noundef !4
  %89 = trunc i8 %88 to i1
  store i1 %89, ptr %3, align 1
  store i32 1, ptr %8, align 4
  br label %90

90:                                               ; preds = %87, %16, %11
  call void @llvm.lifetime.end.p0(i64 1, ptr %7) #8
  call void @llvm.lifetime.end.p0(i64 4, ptr %6) #8
  %91 = load i1, ptr %3, align 1
  ret i1 %91
}