; Function Attrs: nounwind uwtable
define hidden zeroext i1 @SDL_SetSurfaceBlendMode_REAL(ptr noundef %0, i32 noundef %1) local_unnamed_addr #2 {
  %.not.i = icmp eq ptr %0, null
  br i1 %.not.i, label %SDL_SurfaceValid.exit.thread, label %SDL_SurfaceValid.exit

SDL_SurfaceValid.exit:                            ; preds = %2
  %3 = getelementptr inbounds nuw i8, ptr %0, i64 40
  %4 = load ptr, ptr %3, align 8
  %5 = icmp eq ptr %4, @SDL_surface_magic
  br i1 %5, label %7, label %SDL_SurfaceValid.exit.thread

SDL_SurfaceValid.exit.thread:                     ; preds = %2, %SDL_SurfaceValid.exit
  %6 = tail call zeroext i1 (ptr, ...) @SDL_SetError_REAL(ptr noundef nonnull @.str, ptr noundef nonnull @.str.5) #10
  br label %33

7:                                                ; preds = %SDL_SurfaceValid.exit
  %8 = icmp eq i32 %1, 2147483647
  br i1 %8, label %9, label %11

9:                                                ; preds = %7
  %10 = tail call zeroext i1 (ptr, ...) @SDL_SetError_REAL(ptr noundef nonnull @.str, ptr noundef nonnull @.str.13) #10
  br label %33

11:                                               ; preds = %7
  %12 = getelementptr inbounds nuw i8, ptr %0, i64 120
  %13 = getelementptr inbounds nuw i8, ptr %0, i64 256
  %14 = load i32, ptr %13, align 8
  %15 = and i32 %14, -1009
  store i32 %15, ptr %13, align 8
  switch i32 %1, label %28 [
    i32 0, label %30
    i32 1, label %16
    i32 16, label %18
    i32 2, label %20
    i32 32, label %22
    i32 4, label %24
    i32 8, label %26
  ]

16:                                               ; preds = %11
  %17 = or disjoint i32 %15, 16
  store i32 %17, ptr %13, align 8
  br label %30

18:                                               ; preds = %11
  %19 = or disjoint i32 %15, 32
  store i32 %19, ptr %13, align 8
  br label %30

20:                                               ; preds = %11
  %21 = or disjoint i32 %15, 64
  store i32 %21, ptr %13, align 8
  br label %30

22:                                               ; preds = %11
  %23 = or disjoint i32 %15, 128
  store i32 %23, ptr %13, align 8
  br label %30

24:                                               ; preds = %11
  %25 = or disjoint i32 %15, 256
  store i32 %25, ptr %13, align 8
  br label %30

26:                                               ; preds = %11
  %27 = or disjoint i32 %15, 512
  store i32 %27, ptr %13, align 8
  br label %30

28:                                               ; preds = %11
  %29 = tail call zeroext i1 (ptr, ...) @SDL_SetError_REAL(ptr noundef nonnull @.str.14) #10
  %.pre = load i32, ptr %13, align 8
  br label %30

30:                                               ; preds = %28, %26, %24, %22, %20, %18, %16, %11
  %31 = phi i32 [ %.pre, %28 ], [ %27, %26 ], [ %25, %24 ], [ %23, %22 ], [ %21, %20 ], [ %19, %18 ], [ %17, %16 ], [ %15, %11 ]
  %.0 = phi i1 [ %29, %28 ], [ true, %26 ], [ true, %24 ], [ true, %22 ], [ true, %20 ], [ true, %18 ], [ true, %16 ], [ true, %11 ]
  %.not = icmp eq i32 %31, %14
  br i1 %.not, label %33, label %32

32:                                               ; preds = %30
  tail call void @SDL_InvalidateMap(ptr noundef nonnull %12) #10
  br label %33

33:                                               ; preds = %30, %32, %9, %SDL_SurfaceValid.exit.thread
  %.015 = phi i1 [ %10, %9 ], [ %6, %SDL_SurfaceValid.exit.thread ], [ %.0, %32 ], [ %.0, %30 ]
  ret i1 %.015
}